; Function Attrs: nounwind uwtable
define range(i32 -27, 1) i32 @pmix_pgpu_base_setup_fork(ptr noundef %0, ptr noundef %1) local_unnamed_addr #0 {
  %3 = load i32, ptr getelementptr inbounds nuw (i8, ptr @pmix_pgpu_base_framework, i64 76), align 4, !tbaa !3
  %or.cond = icmp ult i32 %3, 64
  br i1 %or.cond, label %4, label %10

4:                                                ; preds = %2
  %5 = zext nneg i32 %3 to i64
  %6 = getelementptr inbounds nuw [0 x %struct.pmix_output_desc_t], ptr @pmix_output_info, i64 0, i64 %5, i32 2
  %7 = load i32, ptr %6, align 4, !tbaa !18
  %8 = icmp sgt i32 %7, 1
  br i1 %8, label %9, label %10

9:                                                ; preds = %4
  tail call void (i32, ptr, ...) @pmix_output(i32 noundef %3, ptr noundef nonnull @.str.2) #11
  br label %10

10:                                               ; preds = %9, %4, %2
  %11 = icmp eq ptr %0, null
  %12 = icmp eq ptr %1, null
  %or.cond3 = or i1 %11, %12
  br i1 %or.cond3, label %.thread, label %.preheader

.preheader:                                       ; preds = %10
  %.01830 = load ptr, ptr getelementptr inbounds nuw (i8, ptr @pmix_pgpu_globals, i64 512), align 8, !tbaa !22
  %.not31 = icmp eq ptr %.01830, getelementptr inbounds nuw (i8, ptr @pmix_pgpu_globals, i64 392)
  br i1 %.not31, label %.thread, label %.lr.ph

.lr.ph:                                           ; preds = %.preheader, %18
  %.01832 = phi ptr [ %.018, %18 ], [ %.01830, %.preheader ]
  %13 = getelementptr inbounds nuw i8, ptr %.01832, i64 144
  %14 = load ptr, ptr %13, align 8, !tbaa !72
  %15 = getelementptr inbounds nuw i8, ptr %14, i64 144
  %16 = load ptr, ptr %15, align 8, !tbaa !23
  %17 = tail call zeroext i1 @PMIx_Check_nspace(ptr noundef %16, ptr noundef %0) #11
  br i1 %17, label %20, label %18

18:                                               ; preds = %.lr.ph
  %19 = getelementptr inbounds nuw i8, ptr %.01832, i64 120
  %.018 = load ptr, ptr %19, align 8, !tbaa !22
  %.not = icmp eq ptr %.018, getelementptr inbounds nuw (i8, ptr @pmix_pgpu_globals, i64 392)
  br i1 %.not, label %.thread, label %.lr.ph, !llvm.loop !78

20:                                               ; preds = %.lr.ph
  %.not24 = icmp eq ptr %.01832, null
  br i1 %.not24, label %.thread, label %21

21:                                               ; preds = %20
  %22 = getelementptr inbounds nuw i8, ptr %.01832, i64 272
  %23 = getelementptr inbounds nuw i8, ptr %.01832, i64 392
  %.033 = load ptr, ptr %23, align 8, !tbaa !22
  %.not2534 = icmp eq ptr %.033, %22
  br i1 %.not2534, label %.thread, label %.lr.ph36

.lr.ph36:                                         ; preds = %21, %.lr.ph36
  %.035 = phi ptr [ %.0, %.lr.ph36 ], [ %.033, %21 ]
  %24 = getelementptr inbounds nuw i8, ptr %.035, i64 144
  %25 = load ptr, ptr %24, align 8, !tbaa !79
  %26 = getelementptr inbounds nuw i8, ptr %.035, i64 152
  %27 = load ptr, ptr %26, align 8, !tbaa !82
  %28 = tail call i32 @PMIx_Setenv(ptr noundef %25, ptr noundef %27, i1 noundef zeroext true, ptr noundef %1) #11
  %29 = getelementptr inbounds nuw i8, ptr %.035, i64 120
  %.0 = load ptr, ptr %29, align 8, !tbaa !22
  %.not25 = icmp eq ptr %.0, %22
  br i1 %.not25, label %.thread, label %.lr.ph36, !llvm.loop !83

.thread:                                          ; preds = %18, %.lr.ph36, %.preheader, %21, %20, %10
  %.020 = phi i32 [ -27, %10 ], [ 0, %20 ], [ 0, %21 ], [ 0, %.preheader ], [ 0, %.lr.ph36 ], [ 0, %18 ]
  ret i32 %.020
}